(dp0
S'METTS MARK'
p1
(dp2
S'to_messages'
p3
I807
sS'deferral_payments'
p4
S'NaN'
p5
sS'expenses'
p6
I94299
sS'poi'
p7
I00
sS'long_term_incentive'
p8
g5
sS'email_address'
p9
S'mark.metts@enron.com'
p10
sS'deferred_income'
p11
g5
sS'restricted_stock_deferred'
p12
g5
sS'shared_receipt_with_poi'
p13
I702
sS'loan_advances'
p14
g5
sS'from_messages'
p15
I29
sS'other'
p16
I1740
sS'important_from'
p17
I9
sS'director_fees'
p18
g5
sS'important_to'
p19
I32
sS'bonus'
p20
I600000
sS'total_stock_value'
p21
I585062
sS'from_poi_to_this_person'
p22
I38
sS'from_this_person_to_poi'
p23
I1
sS'restricted_stock'
p24
I585062
sS'salary'
p25
I365788
sS'long_term_incentive_per_salary'
p26
I0
sS'total_payments'
p27
I1061827
sS'exercised_stock_options'
p28
g5
sS'bonus_per_salary'
p29
I0
ssS'BAXTER JOHN C'
p30
(dp31
g3
g5
sg4
I1295738
sg6
I11200
sg7
I00
sg8
I1586055
sg9
g5
sg11
I-1386055
sg12
g5
sg13
g5
sg14
g5
sg15
g5
sg16
I2660303
sg17
I0
sg18
g5
sg19
I0
sg20
I1200000
sg21
I10623258
sg22
g5
sg23
g5
sg24
I3942714
sg25
I267102
sg26
F5.938012444684054
sg27
I5634343
sg28
I6680544
sg29
F4.492665723206865
ssS'ELLIOTT STEVEN'
p32
(dp33
g3
g5
sg4
g5
sg6
I78552
sg7
I00
sg8
g5
sg9
S'steven.elliott@enron.com'
p34
sg11
I-400729
sg12
g5
sg13
g5
sg14
g5
sg15
g5
sg16
I12961
sg17
I0
sg18
g5
sg19
I0
sg20
I350000
sg21
I6678735
sg22
g5
sg23
g5
sg24
I1788391
sg25
I170941
sg26
I0
sg27
I211725
sg28
I4890344
sg29
I0
ssS'CORDES WILLIAM R'
p35
(dp36
g3
I764
sg4
g5
sg6
g5
sg7
I00
sg8
g5
sg9
S'bill.cordes@enron.com'
p37
sg11
g5
sg12
g5
sg13
I58
sg14
g5
sg15
I12
sg16
g5
sg17
I7
sg18
g5
sg19
I5
sg20
g5
sg21
I1038185
sg22
I10
sg23
I0
sg24
I386335
sg25
g5
sg26
I0
sg27
g5
sg28
I651850
sg29
I0
ssS'HANNON KEVIN P'
p38
(dp39
g3
I1045
sg4
g5
sg6
I34039
sg7
I01
sg8
I1617011
sg9
S'kevin.hannon@enron.com'
p40
sg11
I-3117011
sg12
g5
sg13
I1035
sg14
g5
sg15
I32
sg16
I11350
sg17
I13
sg18
g5
sg19
I20
sg20
I1500000
sg21
I6391065
sg22
I32
sg23
I21
sg24
I853064
sg25
I243293
sg26
F6.646352340593441
sg27
I288682
sg28
I5538001
sg29
F6.165405498719651
ssS'MORDAUNT KRISTINA M'
p41
(dp42
g3
g5
sg4
g5
sg6
I35018
sg7
I00
sg8
g5
sg9
S'kristina.mordaunt@enron.com'
p43
sg11
g5
sg12
g5
sg13
g5
sg14
g5
sg15
g5
sg16
I1411
sg17
I0
sg18
g5
sg19
I0
sg20
I325000
sg21
I208510
sg22
g5
sg23
g5
sg24
I208510
sg25
I267093
sg26
I0
sg27
I628522
sg28
g5
sg29
I0
ssS'MEYER ROCKFORD G'
p44
(dp45
g3
I232
sg4
I1848227
sg6
g5
sg7
I00
sg8
g5
sg9
S'rockford.meyer@enron.com'
p46
sg11
g5
sg12
g5
sg13
I22
sg14
g5
sg15
I28
sg16
g5
sg17
I2
sg18
g5
sg19
I0
sg20
g5
sg21
I955873
sg22
I0
sg23
I0
sg24
I462384
sg25
g5
sg26
I0
sg27
I1848227
sg28
I493489
sg29
I0
ssS'MCMAHON JEFFREY'
p47
(dp48
g3
I2355
sg4
g5
sg6
I137108
sg7
I00
sg8
I694862
sg9
S'jeffrey.mcmahon@enron.com'
p49
sg11
g5
sg12
g5
sg13
I2228
sg14
g5
sg15
I48
sg16
I297353
sg17
I7
sg18
g5
sg19
I18
sg20
I2600000
sg21
I1662855
sg22
I58
sg23
I26
sg24
I558801
sg25
I370448
sg26
F1.875734246102017
sg27
I4099771
sg28
I1104054
sg29
F7.018528916339135
ssS'HORTON STANLEY C'
p50
(dp51
g3
I2350
sg4
I3131860
sg6
g5
sg7
I00
sg8
g5
sg9
S'stanley.horton@enron.com'
p52
sg11
g5
sg12
g5
sg13
I1074
sg14
g5
sg15
I1073
sg16
g5
sg17
I84
sg18
g5
sg19
I29
sg20
g5
sg21
I7256648
sg22
I44
sg23
I15
sg24
I2046079
sg25
g5
sg26
I0
sg27
I3131860
sg28
I5210569
sg29
I0
ssS'PIPER GREGORY F'
p53
(dp54
g3
I1238
sg4
I1130036
sg6
I43057
sg7
I00
sg8
g5
sg9
S'greg.piper@enron.com'
p55
sg11
I-33333
sg12
I-409554
sg13
I742
sg14
g5
sg15
I222
sg16
I778
sg17
I31
sg18
g5
sg19
I22
sg20
I400000
sg21
I880290
sg22
I61
sg23
I48
sg24
I409554
sg25
I197091
sg26
I0
sg27
I1737629
sg28
I880290
sg29
I0
ssS'HUMPHREY GENE E'
p56
(dp57
g3
I128
sg4
I2964506
sg6
I4994
sg7
I00
sg8
g5
sg9
S'gene.humphrey@enron.com'
p58
sg11
g5
sg12
g5
sg13
I119
sg14
g5
sg15
I17
sg16
g5
sg17
I0
sg18
g5
sg19
I2
sg20
g5
sg21
I2282768
sg22
I10
sg23
I17
sg24
g5
sg25
I130724
sg26
I0
sg27
I3100224
sg28
I2282768
sg29
I0
ssS'UMANOFF ADAM S'
p59
(dp60
g3
I111
sg4
g5
sg6
I53122
sg7
I00
sg8
g5
sg9
S'adam.umanoff@enron.com'
p61
sg11
g5
sg12
g5
sg13
I41
sg14
g5
sg15
I18
sg16
g5
sg17
I3
sg18
g5
sg19
I0
sg20
I788750
sg21
g5
sg22
I12
sg23
I0
sg24
g5
sg25
I288589
sg26
I0
sg27
I1130461
sg28
g5
sg29
I0
ssS'BLACHMAN JEREMY M'
p62
(dp63
g3
I2475
sg4
g5
sg6
I84208
sg7
I00
sg8
I831809
sg9
S'jeremy.blachman@enron.com'
p64
sg11
g5
sg12
g5
sg13
I2326
sg14
g5
sg15
I14
sg16
I272
sg17
I2
sg18
g5
sg19
I71
sg20
I850000
sg21
I954354
sg22
I25
sg23
I2
sg24
I189041
sg25
I248546
sg26
F3.3467004095821298
sg27
I2014835
sg28
I765313
sg29
F3.419890080709406
ssS'SUNDE MARTIN'
p65
(dp66
g3
I2647
sg4
g5
sg6
g5
sg7
I00
sg8
I476451
sg9
S'marty.sunde@enron.com'
p67
sg11
g5
sg12
g5
sg13
I2565
sg14
g5
sg15
I38
sg16
I111122
sg17
I8
sg18
g5
sg19
I88
sg20
I700000
sg21
I698920
sg22
I37
sg23
I13
sg24
I698920
sg25
I257486
sg26
F1.8503957496718269
sg27
I1545059
sg28
g5
sg29
F2.7185944090164127
ssS'GIBBS DANA R'
p68
(dp69
g3
I169
sg4
I504610
sg6
g5
sg7
I00
sg8
I461912
sg9
S'dana.gibbs@enron.com'
p70
sg11
g5
sg12
g5
sg13
I23
sg14
g5
sg15
I12
sg16
g5
sg17
I0
sg18
g5
sg19
I0
sg20
g5
sg21
I2218275
sg22
I0
sg23
I0
sg24
g5
sg25
g5
sg26
I0
sg27
I966522
sg28
I2218275
sg29
I0
ssS'LOWRY CHARLES P'
p71
(dp72
g3
g5
sg4
g5
sg6
g5
sg7
I00
sg8
g5
sg9
g5
sg11
g5
sg12
I-153686
sg13
g5
sg14
g5
sg15
g5
sg16
g5
sg17
I0
sg18
g5
sg19
I0
sg20
g5
sg21
I372205
sg22
g5
sg23
g5
sg24
I153686
sg25
g5
sg26
I0
sg27
g5
sg28
I372205
sg29
I0
ssS'COLWELL WESLEY'
p73
(dp74
g3
I1758
sg4
I27610
sg6
I16514
sg7
I01
sg8
g5
sg9
S'wes.colwell@enron.com'
p75
sg11
I-144062
sg12
g5
sg13
I1132
sg14
g5
sg15
I40
sg16
I101740
sg17
I0
sg18
g5
sg19
I4
sg20
I1200000
sg21
I698242
sg22
I240
sg23
I11
sg24
I698242
sg25
I288542
sg26
I0
sg27
I1490344
sg28
g5
sg29
I0
ssS'MULLER MARK S'
p76
(dp77
g3
I136
sg4
I842924
sg6
g5
sg7
I00
sg8
I1725545
sg9
S's..muller@enron.com'
p78
sg11
I-719000
sg12
g5
sg13
I114
sg14
g5
sg15
I16
sg16
I947
sg17
I1
sg18
g5
sg19
I0
sg20
I1100000
sg21
I1416848
sg22
I12
sg23
I0
sg24
I360528
sg25
I251654
sg26
F6.856815309909638
sg27
I3202070
sg28
I1056320
sg29
F4.3710809285765375
ssS'JACKSON CHARLENE R'
p79
(dp80
g3
I258
sg4
g5
sg6
I10181
sg7
I00
sg8
g5
sg9
S'charlene.jackson@enron.com'
p81
sg11
g5
sg12
g5
sg13
I117
sg14
g5
sg15
I56
sg16
I2435
sg17
I21
sg18
g5
sg19
I0
sg20
I250000
sg21
I725735
sg22
I25
sg23
I19
sg24
I540672
sg25
I288558
sg26
I0
sg27
I551174
sg28
I185063
sg29
I0
ssS'WESTFAHL RICHARD K'
p82
(dp83
g3
g5
sg4
g5
sg6
I51870
sg7
I00
sg8
I256191
sg9
S'dick.westfahl@enron.com'
p84
sg11
I-10800
sg12
g5
sg13
g5
sg14
g5
sg15
g5
sg16
I401130
sg17
I0
sg18
g5
sg19
I0
sg20
g5
sg21
I384930
sg22
g5
sg23
g5
sg24
I384930
sg25
I63744
sg26
I0
sg27
I762135
sg28
g5
sg29
I0
ssS'WALTERS GARETH W'
p85
(dp86
g3
g5
sg4
I53625
sg6
I33785
sg7
I00
sg8
g5
sg9
g5
sg11
g5
sg12
g5
sg13
g5
sg14
g5
sg15
g5
sg16
g5
sg17
I0
sg18
g5
sg19
I0
sg20
g5
sg21
I1030329
sg22
g5
sg23
g5
sg24
g5
sg25
g5
sg26
I0
sg27
I87410
sg28
I1030329
sg29
I0
ssS'WALLS JR ROBERT H'
p87
(dp88
g3
I671
sg4
g5
sg6
I50936
sg7
I00
sg8
I540751
sg9
S'rob.walls@enron.com'
p89
sg11
g5
sg12
g5
sg13
I215
sg14
g5
sg15
I146
sg16
I2
sg17
I19
sg18
g5
sg19
I0
sg20
I850000
sg21
I5898997
sg22
I17
sg23
I0
sg24
I1552453
sg25
I357091
sg26
F1.5143226796530855
sg27
I1798780
sg28
I4346544
sg29
F2.380345626184922
ssS'KITCHEN LOUISE'
p90
(dp91
g3
I8305
sg4
g5
sg6
I5774
sg7
I00
sg8
g5
sg9
S'louise.kitchen@enron.com'
p92
sg11
g5
sg12
g5
sg13
I3669
sg14
g5
sg15
I1728
sg16
I93925
sg17
I208
sg18
g5
sg19
I24
sg20
I3100000
sg21
I547143
sg22
I251
sg23
I194
sg24
I466101
sg25
I271442
sg26
I0
sg27
I3471141
sg28
I81042
sg29
I0
ssS'CHAN RONNIE'
p93
(dp94
g3
g5
sg4
g5
sg6
g5
sg7
I00
sg8
g5
sg9
g5
sg11
I-98784
sg12
I-32460
sg13
g5
sg14
g5
sg15
g5
sg16
g5
sg17
I0
sg18
I98784
sg19
I0
sg20
g5
sg21
g5
sg22
g5
sg23
g5
sg24
I32460
sg25
g5
sg26
I0
sg27
g5
sg28
g5
sg29
I0
ssS'BELFER ROBERT'
p95
(dp96
g3
g5
sg4
I-102500
sg6
g5
sg7
I00
sg8
g5
sg9
g5
sg11
g5
sg12
I44093
sg13
g5
sg14
g5
sg15
g5
sg16
g5
sg17
I0
sg18
I3285
sg19
I0
sg20
g5
sg21
I-44093
sg22
g5
sg23
g5
sg24
g5
sg25
g5
sg26
I0
sg27
I102500
sg28
I3285
sg29
I0
ssS'SHANKMAN JEFFREY A'
p97
(dp98
g3
I3221
sg4
g5
sg6
I178979
sg7
I00
sg8
I554422
sg9
S'jeffrey.shankman@enron.com'
p99
sg11
g5
sg12
g5
sg13
I1730
sg14
g5
sg15
I2681
sg16
I1191
sg17
I499
sg18
g5
sg19
I54
sg20
I2000000
sg21
I2072035
sg22
I94
sg23
I83
sg24
I630137
sg25
I304110
sg26
F1.8230969057249022
sg27
I3038702
sg28
I1441898
sg29
F6.576567689322943
ssS'WODRASKA JOHN'
p100
(dp101
g3
g5
sg4
g5
sg6
g5
sg7
I00
sg8
g5
sg9
S'john.wodraska@enron.com'
p102
sg11
g5
sg12
g5
sg13
g5
sg14
g5
sg15
g5
sg16
I189583
sg17
I0
sg18
g5
sg19
I0
sg20
g5
sg21
g5
sg22
g5
sg23
g5
sg24
g5
sg25
g5
sg26
I0
sg27
I189583
sg28
g5
sg29
I0
ssS'BERGSIEKER RICHARD P'
p103
(dp104
g3
I383
sg4
g5
sg6
I59175
sg7
I00
sg8
I180250
sg9
S'rick.bergsieker@enron.com'
p105
sg11
I-485813
sg12
g5
sg13
I233
sg14
g5
sg15
I59
sg16
I427316
sg17
I46
sg18
g5
sg19
I0
sg20
I250000
sg21
I659249
sg22
I4
sg23
I0
sg24
I659249
sg25
I187922
sg26
F0.9591745511435595
sg27
I618850
sg28
g5
sg29
F1.3303391832781686
ssS'URQUHART JOHN A'
p106
(dp107
g3
g5
sg4
g5
sg6
I228656
sg7
I00
sg8
g5
sg9
g5
sg11
I-36666
sg12
g5
sg13
g5
sg14
g5
sg15
g5
sg16
g5
sg17
I0
sg18
I36666
sg19
I0
sg20
g5
sg21
g5
sg22
g5
sg23
g5
sg24
g5
sg25
g5
sg26
I0
sg27
I228656
sg28
g5
sg29
I0
ssS'BIBI PHILIPPE A'
p108
(dp109
g3
I1607
sg4
g5
sg6
I38559
sg7
I00
sg8
I369721
sg9
S'philippe.bibi@enron.com'
p110
sg11
g5
sg12
g5
sg13
I1336
sg14
g5
sg15
I40
sg16
I425688
sg17
I0
sg18
g5
sg19
I19
sg20
I1000000
sg21
I1843816
sg22
I23
sg23
I8
sg24
I378082
sg25
I213625
sg26
F1.7307009947337624
sg27
I2047593
sg28
I1465734
sg29
F4.681100058513751
ssS'RIEKER PAULA H'
p111
(dp112
g3
I1328
sg4
I214678
sg6
I33271
sg7
I01
sg8
g5
sg9
S'paula.rieker@enron.com'
p113
sg11
I-100000
sg12
g5
sg13
I1258
sg14
g5
sg15
I82
sg16
I1950
sg17
I3
sg18
g5
sg19
I2
sg20
I700000
sg21
I1918887
sg22
I35
sg23
I48
sg24
I283649
sg25
I249201
sg26
I0
sg27
I1099100
sg28
I1635238
sg29
I0
ssS'WHALEY DAVID A'
p114
(dp115
g3
g5
sg4
g5
sg6
g5
sg7
I00
sg8
g5
sg9
g5
sg11
g5
sg12
g5
sg13
g5
sg14
g5
sg15
g5
sg16
g5
sg17
I0
sg18
g5
sg19
I0
sg20
g5
sg21
I98718
sg22
g5
sg23
g5
sg24
g5
sg25
g5
sg26
I0
sg27
g5
sg28
I98718
sg29
I0
ssS'BECK SALLY W'
p116
(dp117
g3
I7315
sg4
g5
sg6
I37172
sg7
I00
sg8
g5
sg9
S'sally.beck@enron.com'
p118
sg11
g5
sg12
g5
sg13
I2639
sg14
g5
sg15
I4343
sg16
I566
sg17
I1001
sg18
g5
sg19
I13
sg20
I700000
sg21
I126027
sg22
I144
sg23
I386
sg24
I126027
sg25
I231330
sg26
I0
sg27
I969068
sg28
g5
sg29
I0
ssS'HAUG DAVID L'
p119
(dp120
g3
I573
sg4
g5
sg6
I475
sg7
I00
sg8
g5
sg9
S'david.haug@enron.com'
p121
sg11
g5
sg12
g5
sg13
I471
sg14
g5
sg15
I19
sg16
g5
sg17
I6
sg18
g5
sg19
I17
sg20
g5
sg21
I2217299
sg22
I4
sg23
I7
sg24
I2217299
sg25
g5
sg26
I0
sg27
I475
sg28
g5
sg29
I0
ssS'ECHOLS JOHN B'
p122
(dp123
g3
g5
sg4
g5
sg6
I21530
sg7
I00
sg8
I2234774
sg9
S'john.echols@enron.com'
p124
sg11
g5
sg12
g5
sg13
g5
sg14
g5
sg15
g5
sg16
I53775
sg17
I0
sg18
g5
sg19
I0
sg20
I200000
sg21
I1008941
sg22
g5
sg23
g5
sg24
I407503
sg25
I182245
sg26
F12.262470849680374
sg27
I2692324
sg28
I601438
sg29
F1.0974237976350518
ssS'MENDELSOHN JOHN'
p125
(dp126
g3
g5
sg4
g5
sg6
I148
sg7
I00
sg8
g5
sg9
g5
sg11
I-103750
sg12
g5
sg13
g5
sg14
g5
sg15
g5
sg16
g5
sg17
I0
sg18
I103750
sg19
I0
sg20
g5
sg21
g5
sg22
g5
sg23
g5
sg24
g5
sg25
g5
sg26
I0
sg27
I148
sg28
g5
sg29
I0
ssS'HICKERSON GARY J'
p127
(dp128
g3
I1320
sg4
g5
sg6
I98849
sg7
I00
sg8
I69223
sg9
S'gary.hickerson@enron.com'
p129
sg11
g5
sg12
g5
sg13
I900
sg14
g5
sg15
I27
sg16
I1936
sg17
I8
sg18
g5
sg19
I0
sg20
I1700000
sg21
I441096
sg22
I40
sg23
I1
sg24
I441096
sg25
I211788
sg26
F0.3268504353410014
sg27
I2081796
sg28
g5
sg29
F8.02689481934765
ssS'CLINE KENNETH W'
p130
(dp131
g3
g5
sg4
g5
sg6
g5
sg7
I00
sg8
g5
sg9
g5
sg11
g5
sg12
I-472568
sg13
g5
sg14
g5
sg15
g5
sg16
g5
sg17
I0
sg18
g5
sg19
I0
sg20
g5
sg21
I189518
sg22
g5
sg23
g5
sg24
I662086
sg25
g5
sg26
I0
sg27
g5
sg28
g5
sg29
I0
ssS'LEWIS RICHARD'
p132
(dp133
g3
I952
sg4
g5
sg6
g5
sg7
I00
sg8
g5
sg9
S'richard.lewis@enron.com'
p134
sg11
g5
sg12
g5
sg13
I739
sg14
g5
sg15
I26
sg16
g5
sg17
I12
sg18
g5
sg19
I0
sg20
g5
sg21
I850477
sg22
I10
sg23
I0
sg24
g5
sg25
g5
sg26
I0
sg27
g5
sg28
I850477
sg29
I0
ssS'HAYES ROBERT E'
p135
(dp136
g3
I504
sg4
I7961
sg6
g5
sg7
I00
sg8
g5
sg9
S'robert.hayes@enron.com'
p137
sg11
g5
sg12
g5
sg13
I50
sg14
g5
sg15
I12
sg16
g5
sg17
I0
sg18
g5
sg19
I3
sg20
g5
sg21
I151418
sg22
I16
sg23
I0
sg24
I151418
sg25
g5
sg26
I0
sg27
I7961
sg28
g5
sg29
I0
ssS'MCCARTY DANNY J'
p138
(dp139
g3
I1433
sg4
g5
sg6
g5
sg7
I00
sg8
g5
sg9
S'danny.mccarty@enron.com'
p140
sg11
g5
sg12
g5
sg13
I508
sg14
g5
sg15
I215
sg16
g5
sg17
I17
sg18
g5
sg19
I17
sg20
g5
sg21
I758931
sg22
I25
sg23
I2
sg24
I94556
sg25
g5
sg26
I0
sg27
g5
sg28
I664375
sg29
I0
ssS'KOPPER MICHAEL J'
p141
(dp142
g3
g5
sg4
g5
sg6
I118134
sg7
I01
sg8
I602671
sg9
S'michael.kopper@enron.com'
p143
sg11
g5
sg12
g5
sg13
g5
sg14
g5
sg15
g5
sg16
I907502
sg17
I0
sg18
g5
sg19
I0
sg20
I800000
sg21
I985032
sg22
g5
sg23
g5
sg24
I985032
sg25
I224305
sg26
F2.6868371191012237
sg27
I2652612
sg28
g5
sg29
F3.5665723011078665
ssS'LEFF DANIEL P'
p144
(dp145
g3
I2822
sg4
g5
sg6
g5
sg7
I00
sg8
I1387399
sg9
S'dan.leff@enron.com'
p146
sg11
g5
sg12
g5
sg13
I2672
sg14
g5
sg15
I63
sg16
I3083
sg17
I3
sg18
g5
sg19
I77
sg20
I1000000
sg21
I360528
sg22
I67
sg23
I14
sg24
I360528
sg25
I273746
sg26
F5.068198256778182
sg27
I2664228
sg28
g5
sg29
F3.653021414011529
ssS'LAVORATO JOHN J'
p147
(dp148
g3
I7259
sg4
g5
sg6
I49537
sg7
I00
sg8
I2035380
sg9
S'john.lavorato@enron.com'
p149
sg11
g5
sg12
g5
sg13
I3962
sg14
g5
sg15
I2585
sg16
I1552
sg17
I112
sg18
g5
sg19
I40
sg20
I8000000
sg21
I5167144
sg22
I528
sg23
I411
sg24
I1008149
sg25
I339288
sg26
F5.9989743226993
sg27
I10425757
sg28
I4158995
sg29
F23.57878852184575
ssS'BERBERIAN DAVID'
p150
(dp151
g3
g5
sg4
g5
sg6
I11892
sg7
I00
sg8
g5
sg9
S'david.berberian@enron.com'
p152
sg11
g5
sg12
g5
sg13
g5
sg14
g5
sg15
g5
sg16
g5
sg17
I0
sg18
g5
sg19
I0
sg20
g5
sg21
I2493616
sg22
g5
sg23
g5
sg24
I869220
sg25
I216582
sg26
I0
sg27
I228474
sg28
I1624396
sg29
I0
ssS'DETMERING TIMOTHY J'
p153
(dp154
g3
g5
sg4
I875307
sg6
I52255
sg7
I00
sg8
I415657
sg9
S'timothy.detmering@enron.com'
p155
sg11
I-775241
sg12
I-315068
sg13
g5
sg14
g5
sg15
g5
sg16
I1105
sg17
I0
sg18
g5
sg19
I0
sg20
I425000
sg21
I2027865
sg22
g5
sg23
g5
sg24
I315068
sg25
I210500
sg26
F1.9746175771971497
sg27
I1204583
sg28
I2027865
sg29
F2.019002375296912
ssS'WAKEHAM JOHN'
p156
(dp157
g3
g5
sg4
g5
sg6
I103773
sg7
I00
sg8
g5
sg9
g5
sg11
g5
sg12
g5
sg13
g5
sg14
g5
sg15
g5
sg16
g5
sg17
I0
sg18
I109298
sg19
I0
sg20
g5
sg21
g5
sg22
g5
sg23
g5
sg24
g5
sg25
g5
sg26
I0
sg27
I213071
sg28
g5
sg29
I0
ssS'POWERS WILLIAM'
p158
(dp159
g3
I653
sg4
g5
sg6
g5
sg7
I00
sg8
g5
sg9
S'ken.powers@enron.com'
p160
sg11
I-17500
sg12
g5
sg13
I12
sg14
g5
sg15
I26
sg16
g5
sg17
I0
sg18
I17500
sg19
I0
sg20
g5
sg21
g5
sg22
I0
sg23
I0
sg24
g5
sg25
g5
sg26
I0
sg27
g5
sg28
g5
sg29
I0
ssS'GOLD JOSEPH'
p161
(dp162
g3
g5
sg4
g5
sg6
g5
sg7
I00
sg8
I304805
sg9
S'joe.gold@enron.com'
p163
sg11
g5
sg12
g5
sg13
g5
sg14
g5
sg15
g5
sg16
I819288
sg17
I0
sg18
g5
sg19
I0
sg20
I750000
sg21
I877611
sg22
g5
sg23
g5
sg24
I441096
sg25
I272880
sg26
F1.1169928173556143
sg27
I2146973
sg28
I436515
sg29
F2.748460861917326
ssS'BANNANTINE JAMES M'
p164
(dp165
g3
I566
sg4
g5
sg6
I56301
sg7
I00
sg8
g5
sg9
S'james.bannantine@enron.com'
p166
sg11
I-5104
sg12
I-560222
sg13
I465
sg14
g5
sg15
I29
sg16
I864523
sg17
I0
sg18
g5
sg19
I17
sg20
g5
sg21
I5243487
sg22
I39
sg23
I0
sg24
I1757552
sg25
I477
sg26
I0
sg27
I916197
sg28
I4046157
sg29
I0
ssS'DUNCAN JOHN H'
p167
(dp168
g3
g5
sg4
g5
sg6
g5
sg7
I00
sg8
g5
sg9
g5
sg11
I-25000
sg12
g5
sg13
g5
sg14
g5
sg15
g5
sg16
g5
sg17
I0
sg18
I102492
sg19
I0
sg20
g5
sg21
I371750
sg22
g5
sg23
g5
sg24
g5
sg25
g5
sg26
I0
sg27
I77492
sg28
I371750
sg29
I0
ssS'SHAPIRO RICHARD S'
p169
(dp170
g3
I15149
sg4
g5
sg6
I137767
sg7
I00
sg8
g5
sg9
S'richard.shapiro@enron.com'
p171
sg11
g5
sg12
g5
sg13
I4527
sg14
g5
sg15
I1215
sg16
I705
sg17
I272
sg18
g5
sg19
I180
sg20
I650000
sg21
I987001
sg22
I74
sg23
I65
sg24
I379164
sg25
I269076
sg26
I0
sg27
I1057548
sg28
I607837
sg29
I0
ssS'SHERRIFF JOHN R'
p172
(dp173
g3
I3187
sg4
g5
sg6
g5
sg7
I00
sg8
I554422
sg9
S'john.sherriff@enron.com'
p174
sg11
g5
sg12
g5
sg13
I2103
sg14
g5
sg15
I92
sg16
I1852186
sg17
I11
sg18
g5
sg19
I28
sg20
I1500000
sg21
I3128982
sg22
I28
sg23
I23
sg24
I1293424
sg25
I428780
sg26
F1.2930220625962032
sg27
I4335388
sg28
I1835558
sg29
F3.4982974952189934
ssS'SHELBY REX'
p175
(dp176
g3
I225
sg4
g5
sg6
I22884
sg7
I01
sg8
g5
sg9
S'rex.shelby@enron.com'
p177
sg11
I-4167
sg12
g5
sg13
I91
sg14
g5
sg15
I39
sg16
I1573324
sg17
I3
sg18
g5
sg19
I22
sg20
I200000
sg21
I2493616
sg22
I13
sg23
I14
sg24
I869220
sg25
I211844
sg26
I0
sg27
I2003885
sg28
I1624396
sg29
I0
ssS'LEMAISTRE CHARLES'
p178
(dp179
g3
g5
sg4
g5
sg6
g5
sg7
I00
sg8
g5
sg9
g5
sg11
I-25000
sg12
g5
sg13
g5
sg14
g5
sg15
g5
sg16
g5
sg17
I0
sg18
I112492
sg19
I0
sg20
g5
sg21
I412878
sg22
g5
sg23
g5
sg24
g5
sg25
g5
sg26
I0
sg27
I87492
sg28
I412878
sg29
I0
ssS'DEFFNER JOSEPH M'
p180
(dp181
g3
I714
sg4
g5
sg6
I41626
sg7
I00
sg8
I335349
sg9
S'joseph.deffner@enron.com'
p182
sg11
g5
sg12
g5
sg13
I552
sg14
g5
sg15
I74
sg16
I25553
sg17
I8
sg18
g5
sg19
I0
sg20
I600000
sg21
I159211
sg22
I115
sg23
I4
sg24
I141833
sg25
I206121
sg26
F1.6269521300595282
sg27
I1208649
sg28
I17378
sg29
F2.910911551952494
ssS'KISHKILL JOSEPH G'
p183
(dp184
g3
g5
sg4
g5
sg6
I116335
sg7
I00
sg8
g5
sg9
S'joe.kishkill@enron.com'
p185
sg11
I-51042
sg12
g5
sg13
g5
sg14
g5
sg15
g5
sg16
I465357
sg17
I0
sg18
g5
sg19
I0
sg20
g5
sg21
I1034346
sg22
g5
sg23
g5
sg24
I1034346
sg25
I174246
sg26
I0
sg27
I704896
sg28
g5
sg29
I0
ssS'WHALLEY LAWRENCE G'
p186
(dp187
g3
I6019
sg4
g5
sg6
I57838
sg7
I00
sg8
I808346
sg9
S'greg.whalley@enron.com'
p188
sg11
g5
sg12
g5
sg13
I3920
sg14
g5
sg15
I556
sg16
I301026
sg17
I75
sg18
g5
sg19
I33
sg20
I3000000
sg21
I6079137
sg22
I186
sg23
I24
sg24
I2796177
sg25
I510364
sg26
F1.5838617143842435
sg27
I4677574
sg28
I3282960
sg29
F5.878157550297435
ssS'PIRO JIM'
p189
(dp190
g3
I58
sg4
g5
sg6
g5
sg7
I00
sg8
g5
sg9
S'jim.piro@enron.com'
p191
sg11
g5
sg12
g5
sg13
I3
sg14
g5
sg15
I16
sg16
g5
sg17
I2
sg18
g5
sg19
I3
sg20
g5
sg21
I47304
sg22
I0
sg23
I1
sg24
I47304
sg25
g5
sg26
I0
sg27
g5
sg28
g5
sg29
I0
ssS'MCCONNELL MICHAEL S'
p192
(dp193
g3
I3329
sg4
g5
sg6
I81364
sg7
I00
sg8
I554422
sg9
S'mike.mcconnell@enron.com'
p194
sg11
g5
sg12
g5
sg13
I2189
sg14
g5
sg15
I2742
sg16
I540
sg17
I389
sg18
g5
sg19
I32
sg20
I1100000
sg21
I3101279
sg22
I92
sg23
I194
sg24
I1478269
sg25
I365038
sg26
F1.5188062612659503
sg27
I2101364
sg28
I1623010
sg29
F3.013384907872605
ssS'DELAINEY DAVID W'
p195
(dp196
g3
I3093
sg4
g5
sg6
I86174
sg7
I01
sg8
I1294981
sg9
S'david.delainey@enron.com'
p197
sg11
g5
sg12
g5
sg13
I2097
sg14
g5
sg15
I3069
sg16
I1661
sg17
I320
sg18
g5
sg19
I39
sg20
I3000000
sg21
I3614261
sg22
I66
sg23
I609
sg24
I1323148
sg25
I365163
sg26
F3.5463094563249835
sg27
I4747979
sg28
I2291113
sg29
F8.215509238340138
ssS'SULLIVAN-SHAKLOVITZ COLLEEN'
p198
(dp199
g3
g5
sg4
I181993
sg6
g5
sg7
I00
sg8
I554422
sg9
g5
sg11
g5
sg12
g5
sg13
g5
sg14
g5
sg15
g5
sg16
I162
sg17
I0
sg18
g5
sg19
I0
sg20
I100000
sg21
I1362375
sg22
g5
sg23
g5
sg24
g5
sg25
I162779
sg26
F3.40597988684044
sg27
I999356
sg28
I1362375
sg29
F0.6143298582741017
ssS'WROBEL BRUCE'
p200
(dp201
g3
g5
sg4
g5
sg6
g5
sg7
I00
sg8
g5
sg9
g5
sg11
g5
sg12
g5
sg13
g5
sg14
g5
sg15
g5
sg16
g5
sg17
I0
sg18
g5
sg19
I0
sg20
g5
sg21
I139130
sg22
g5
sg23
g5
sg24
g5
sg25
g5
sg26
I0
sg27
g5
sg28
I139130
sg29
I0
ssS'LINDHOLM TOD A'
p202
(dp203
g3
g5
sg4
I204075
sg6
I57727
sg7
I00
sg8
I175000
sg9
S'tod.lindholm@enron.com'
p204
sg11
g5
sg12
g5
sg13
g5
sg14
g5
sg15
g5
sg16
I2630
sg17
I0
sg18
g5
sg19
I0
sg20
I200000
sg21
I3064208
sg22
g5
sg23
g5
sg24
I514847
sg25
I236457
sg26
F0.7400922789344363
sg27
I875889
sg28
I2549361
sg29
F0.8458197473536415
ssS'MEYER JEROME J'
p205
(dp206
g3
g5
sg4
g5
sg6
I2151
sg7
I00
sg8
g5
sg9
g5
sg11
I-38346
sg12
g5
sg13
g5
sg14
g5
sg15
g5
sg16
g5
sg17
I0
sg18
I38346
sg19
I0
sg20
g5
sg21
g5
sg22
g5
sg23
g5
sg24
g5
sg25
g5
sg26
I0
sg27
I2151
sg28
g5
sg29
I0
ssS'LAY KENNETH L'
p207
(dp208
g3
I4273
sg4
I202911
sg6
I99832
sg7
I01
sg8
I3600000
sg9
S'kenneth.lay@enron.com'
p209
sg11
I-300000
sg12
g5
sg13
I2411
sg14
I81525000
sg15
I36
sg16
I10359729
sg17
I16
sg18
g5
sg19
I26
sg20
I7000000
sg21
I49110078
sg22
I123
sg23
I16
sg24
I14761694
sg25
I1072321
sg26
F3.3572036731538413
sg27
I103559793
sg28
I34348384
sg29
F6.527896031132468
ssS'BUTTS ROBERT H'
p210
(dp211
g3
g5
sg4
g5
sg6
I9410
sg7
I00
sg8
I175000
sg9
S'bob.butts@enron.com'
p212
sg11
I-75000
sg12
g5
sg13
g5
sg14
g5
sg15
g5
sg16
I150656
sg17
I0
sg18
g5
sg19
I0
sg20
I750000
sg21
I417619
sg22
g5
sg23
g5
sg24
I417619
sg25
I261516
sg26
F0.6691751173924348
sg27
I1271582
sg28
g5
sg29
F2.8678933602532926
ssS'OLSON CINDY K'
p213
(dp214
g3
I1184
sg4
I77716
sg6
I63791
sg7
I00
sg8
I100000
sg9
S'cindy.olson@enron.com'
p215
sg11
g5
sg12
g5
sg13
I856
sg14
g5
sg15
I52
sg16
I972
sg17
I5
sg18
g5
sg19
I17
sg20
I750000
sg21
I2606763
sg22
I20
sg23
I15
sg24
I969729
sg25
I329078
sg26
F0.3038793234430743
sg27
I1321557
sg28
I1637034
sg29
F2.279094925823057
ssS'MCDONALD REBECCA'
p216
(dp217
g3
I894
sg4
g5
sg6
g5
sg7
I00
sg8
g5
sg9
S'rebecca.mcdonald@enron.com'
p218
sg11
g5
sg12
g5
sg13
I720
sg14
g5
sg15
I13
sg16
g5
sg17
I0
sg18
g5
sg19
I17
sg20
g5
sg21
I1691366
sg22
I54
sg23
I1
sg24
I934065
sg25
g5
sg26
I0
sg27
g5
sg28
I757301
sg29
I0
ssS'CUMBERLAND MICHAEL S'
p219
(dp220
g3
g5
sg4
g5
sg6
I22344
sg7
I00
sg8
I275000
sg9
g5
sg11
g5
sg12
g5
sg13
g5
sg14
g5
sg15
g5
sg16
I713
sg17
I0
sg18
g5
sg19
I0
sg20
I325000
sg21
I207940
sg22
g5
sg23
g5
sg24
I207940
sg25
I184899
sg26
F1.4872984710571717
sg27
I807956
sg28
g5
sg29
F1.7577163748857485
ssS'GAHN ROBERT S'
p221
(dp222
g3
g5
sg4
I73122
sg6
I50080
sg7
I00
sg8
g5
sg9
g5
sg11
I-1042
sg12
g5
sg13
g5
sg14
g5
sg15
g5
sg16
I76547
sg17
I0
sg18
g5
sg19
I0
sg20
I509870
sg21
I318607
sg22
g5
sg23
g5
sg24
I235370
sg25
I192008
sg26
I0
sg27
I900585
sg28
I83237
sg29
I0
ssS'MCCLELLAN GEORGE'
p223
(dp224
g3
I1744
sg4
g5
sg6
I228763
sg7
I00
sg8
g5
sg9
S'george.mcclellan@enron.com'
p225
sg11
I-125000
sg12
g5
sg13
I1469
sg14
g5
sg15
I49
sg16
I51587
sg17
I4
sg18
g5
sg19
I0
sg20
I900000
sg21
I947861
sg22
I52
sg23
I0
sg24
I441096
sg25
I263413
sg26
I0
sg27
I1318763
sg28
I506765
sg29
I0
ssS'HERMANN ROBERT J'
p226
(dp227
g3
g5
sg4
g5
sg6
I48357
sg7
I00
sg8
I150000
sg9
S'robert.hermann@enron.com'
p228
sg11
I-280000
sg12
g5
sg13
g5
sg14
g5
sg15
g5
sg16
I416441
sg17
I0
sg18
g5
sg19
I0
sg20
I700000
sg21
I668132
sg22
g5
sg23
g5
sg24
I480632
sg25
I262663
sg26
F0.5710739616923587
sg27
I1297461
sg28
I187500
sg29
F2.665011821231007
ssS'SCRIMSHAW MATTHEW'
p229
(dp230
g3
g5
sg4
g5
sg6
g5
sg7
I00
sg8
g5
sg9
S'matthew.scrimshaw@enron.com'
p231
sg11
g5
sg12
g5
sg13
g5
sg14
g5
sg15
g5
sg16
g5
sg17
I0
sg18
g5
sg19
I0
sg20
g5
sg21
I759557
sg22
g5
sg23
g5
sg24
g5
sg25
g5
sg26
I0
sg27
g5
sg28
I759557
sg29
I0
ssS'GATHMANN WILLIAM D'
p232
(dp233
g3
g5
sg4
g5
sg6
g5
sg7
I00
sg8
g5
sg9
g5
sg11
g5
sg12
I-72419
sg13
g5
sg14
g5
sg15
g5
sg16
g5
sg17
I0
sg18
g5
sg19
I0
sg20
g5
sg21
I1945360
sg22
g5
sg23
g5
sg24
I264013
sg25
g5
sg26
I0
sg27
g5
sg28
I1753766
sg29
I0
ssS'HAEDICKE MARK E'
p234
(dp235
g3
I4009
sg4
I2157527
sg6
I76169
sg7
I00
sg8
I983346
sg9
S'mark.haedicke@enron.com'
p236
sg11
I-934484
sg12
I-329825
sg13
I1847
sg14
g5
sg15
I1941
sg16
I52382
sg17
I186
sg18
g5
sg19
I16
sg20
I1150000
sg21
I803094
sg22
I180
sg23
I61
sg24
I524169
sg25
I374125
sg26
F2.6283889074507183
sg27
I3859065
sg28
I608750
sg29
F3.073838957567658
ssS'BOWEN JR RAYMOND M'
p237
(dp238
g3
I1858
sg4
g5
sg6
I65907
sg7
I01
sg8
I974293
sg9
S'raymond.bowen@enron.com'
p239
sg11
I-833
sg12
g5
sg13
I1593
sg14
g5
sg15
I27
sg16
I1621
sg17
I10
sg18
g5
sg19
I23
sg20
I1350000
sg21
I252055
sg22
I140
sg23
I15
sg24
I252055
sg25
I278601
sg26
F3.4970908216409846
sg27
I2669589
sg28
g5
sg29
F4.845639462887786
ssS'GILLIS JOHN'
p240
(dp241
g3
g5
sg4
g5
sg6
g5
sg7
I00
sg8
g5
sg9
g5
sg11
g5
sg12
g5
sg13
g5
sg14
g5
sg15
g5
sg16
g5
sg17
I0
sg18
g5
sg19
I0
sg20
g5
sg21
I85641
sg22
g5
sg23
g5
sg24
I75838
sg25
g5
sg26
I0
sg27
g5
sg28
I9803
sg29
I0
ssS'FITZGERALD JAY L'
p242
(dp243
g3
I936
sg4
g5
sg6
I23870
sg7
I00
sg8
I556416
sg9
S'jay.fitzgerald@enron.com'
p244
sg11
g5
sg12
g5
sg13
I723
sg14
g5
sg15
I16
sg16
I285414
sg17
I0
sg18
g5
sg19
I0
sg20
I350000
sg21
I1621236
sg22
I1
sg23
I8
sg24
I956775
sg25
I199157
sg26
F2.793856103476152
sg27
I1414857
sg28
I664461
sg29
F1.7574074724965731
ssS'MORAN MICHAEL P'
p245
(dp246
g3
I672
sg4
g5
sg6
g5
sg7
I00
sg8
g5
sg9
S'michael.moran@enron.com'
p247
sg11
g5
sg12
g5
sg13
I127
sg14
g5
sg15
I19
sg16
g5
sg17
I3
sg18
g5
sg19
I13
sg20
g5
sg21
I221141
sg22
I0
sg23
I0
sg24
I161602
sg25
g5
sg26
I0
sg27
g5
sg28
I59539
sg29
I0
ssS'REDMOND BRIAN L'
p248
(dp249
g3
I1671
sg4
g5
sg6
I14689
sg7
I00
sg8
g5
sg9
S'brian.redmond@enron.com'
p250
sg11
g5
sg12
g5
sg13
I1063
sg14
g5
sg15
I221
sg16
g5
sg17
I8
sg18
g5
sg19
I3
sg20
g5
sg21
I7890324
sg22
I204
sg23
I49
sg24
I381285
sg25
I96840
sg26
I0
sg27
I111529
sg28
I7509039
sg29
I0
ssS'BAZELIDES PHILIP J'
p251
(dp252
g3
g5
sg4
I684694
sg6
g5
sg7
I00
sg8
I93750
sg9
g5
sg11
g5
sg12
g5
sg13
g5
sg14
g5
sg15
g5
sg16
I874
sg17
I0
sg18
g5
sg19
I0
sg20
g5
sg21
I1599641
sg22
g5
sg23
g5
sg24
g5
sg25
I80818
sg26
I0
sg27
I860136
sg28
I1599641
sg29
I0
ssS'BELDEN TIMOTHY N'
p253
(dp254
g3
I7991
sg4
I2144013
sg6
I17355
sg7
I01
sg8
g5
sg9
S'tim.belden@enron.com'
p255
sg11
I-2334434
sg12
g5
sg13
I5521
sg14
g5
sg15
I484
sg16
I210698
sg17
I59
sg18
g5
sg19
I114
sg20
I5249999
sg21
I1110705
sg22
I228
sg23
I108
sg24
I157569
sg25
I213999
sg26
I0
sg27
I5501630
sg28
I953136
sg29
I0
ssS'DURAN WILLIAM D'
p256
(dp257
g3
I904
sg4
g5
sg6
I25785
sg7
I00
sg8
I1105218
sg9
S'w.duran@enron.com'
p258
sg11
g5
sg12
g5
sg13
I599
sg14
g5
sg15
I12
sg16
I1568
sg17
I1
sg18
g5
sg19
I0
sg20
I750000
sg21
I1640910
sg22
I106
sg23
I3
sg24
I189041
sg25
I210692
sg26
F5.245657167808934
sg27
I2093263
sg28
I1451869
sg29
F3.559698517266911
ssS'THORN TERENCE H'
p259
(dp260
g3
I266
sg4
I16586
sg6
I46145
sg7
I00
sg8
I200000
sg9
S'terence.thorn@enron.com'
p261
sg11
g5
sg12
g5
sg13
I73
sg14
g5
sg15
I41
sg16
I426629
sg17
I13
sg18
g5
sg19
I0
sg20
g5
sg21
I4817796
sg22
I0
sg23
I0
sg24
I365320
sg25
I222093
sg26
I0
sg27
I911453
sg28
I4452476
sg29
I0
ssS'FASTOW ANDREW S'
p262
(dp263
g3
g5
sg4
g5
sg6
I55921
sg7
I01
sg8
I1736055
sg9
S'andrew.fastow@enron.com'
p264
sg11
I-1386055
sg12
g5
sg13
g5
sg14
g5
sg15
g5
sg16
I277464
sg17
I0
sg18
g5
sg19
I0
sg20
I1300000
sg21
I1794412
sg22
g5
sg23
g5
sg24
I1794412
sg25
I440698
sg26
F3.939330335059383
sg27
I2424083
sg28
g5
sg29
F2.949865894558178
ssS'FOY JOE'
p265
(dp266
g3
I57
sg4
I181755
sg6
g5
sg7
I00
sg8
g5
sg9
S'tracy.foy@enron.com'
p267
sg11
g5
sg12
g5
sg13
I2
sg14
g5
sg15
I13
sg16
g5
sg17
I0
sg18
g5
sg19
I0
sg20
g5
sg21
I343434
sg22
I0
sg23
I0
sg24
g5
sg25
g5
sg26
I0
sg27
I181755
sg28
I343434
sg29
I0
ssS'CALGER CHRISTOPHER F'
p268
(dp269
g3
I2598
sg4
g5
sg6
I35818
sg7
I01
sg8
I375304
sg9
S'christopher.calger@enron.com'
p270
sg11
I-262500
sg12
g5
sg13
I2188
sg14
g5
sg15
I144
sg16
I486
sg17
I22
sg18
g5
sg19
I64
sg20
I1250000
sg21
I126027
sg22
I199
sg23
I25
sg24
I126027
sg25
I240189
sg26
F1.562536169433238
sg27
I1639297
sg28
g5
sg29
F5.204234998272194
ssS'RICE KENNETH D'
p271
(dp272
g3
I905
sg4
g5
sg6
I46950
sg7
I01
sg8
I1617011
sg9
S'ken.rice@enron.com'
p273
sg11
I-3504386
sg12
g5
sg13
I864
sg14
g5
sg15
I18
sg16
I174839
sg17
I4
sg18
g5
sg19
I20
sg20
I1750000
sg21
I22542539
sg22
I42
sg23
I4
sg24
I2748364
sg25
I420636
sg26
F3.8442049658136725
sg27
I505050
sg28
I19794175
sg29
F4.160366682832663
ssS'KAMINSKI WINCENTY J'
p274
(dp275
g3
I4607
sg4
g5
sg6
I83585
sg7
I00
sg8
I323466
sg9
S'vince.kaminski@enron.com'
p276
sg11
g5
sg12
g5
sg13
I583
sg14
g5
sg15
I14368
sg16
I4669
sg17
I2460
sg18
g5
sg19
I133
sg20
I400000
sg21
I976037
sg22
I41
sg23
I171
sg24
I126027
sg25
I275101
sg26
F1.1758081577311605
sg27
I1086821
sg28
I850010
sg29
F1.4540114357999425
ssS'LOCKHART EUGENE E'
p277
(dp278
g3
g5
sg4
g5
sg6
g5
sg7
I00
sg8
g5
sg9
g5
sg11
g5
sg12
g5
sg13
g5
sg14
g5
sg15
g5
sg16
g5
sg17
I0
sg18
g5
sg19
I0
sg20
g5
sg21
g5
sg22
g5
sg23
g5
sg24
g5
sg25
g5
sg26
I0
sg27
g5
sg28
g5
sg29
I0
ssS'COX DAVID'
p279
(dp280
g3
I102
sg4
g5
sg6
I27861
sg7
I00
sg8
g5
sg9
S'chip.cox@enron.com'
p281
sg11
I-41250
sg12
g5
sg13
I71
sg14
g5
sg15
I33
sg16
I494
sg17
I0
sg18
g5
sg19
I0
sg20
I800000
sg21
I495633
sg22
I0
sg23
I4
sg24
I378082
sg25
I314288
sg26
I0
sg27
I1101393
sg28
I117551
sg29
I0
ssS'OVERDYKE JR JERE C'
p282
(dp283
g3
g5
sg4
g5
sg6
I18834
sg7
I00
sg8
I135836
sg9
S'jere.overdyke@enron.com'
p284
sg11
g5
sg12
g5
sg13
g5
sg14
g5
sg15
g5
sg16
I176
sg17
I0
sg18
g5
sg19
I0
sg20
g5
sg21
I7307594
sg22
g5
sg23
g5
sg24
I2041016
sg25
I94941
sg26
I0
sg27
I249787
sg28
I5266578
sg29
I0
ssS'PEREIRA PAULO V. FERRAZ'
p285
(dp286
g3
g5
sg4
g5
sg6
I27942
sg7
I00
sg8
g5
sg9
g5
sg11
I-101250
sg12
g5
sg13
g5
sg14
g5
sg15
g5
sg16
g5
sg17
I0
sg18
I101250
sg19
I0
sg20
g5
sg21
g5
sg22
g5
sg23
g5
sg24
g5
sg25
g5
sg26
I0
sg27
I27942
sg28
g5
sg29
I0
ssS'STABLER FRANK'
p287
(dp288
g3
g5
sg4
g5
sg6
I16514
sg7
I00
sg8
g5
sg9
S'frank.stabler@enron.com'
p289
sg11
g5
sg12
g5
sg13
g5
sg14
g5
sg15
g5
sg16
I356071
sg17
I0
sg18
g5
sg19
I0
sg20
I500000
sg21
I511734
sg22
g5
sg23
g5
sg24
I511734
sg25
I239502
sg26
I0
sg27
I1112087
sg28
g5
sg29
I0
ssS'SKILLING JEFFREY K'
p290
(dp291
g3
I3627
sg4
g5
sg6
I29336
sg7
I01
sg8
I1920000
sg9
S'jeff.skilling@enron.com'
p292
sg11
g5
sg12
g5
sg13
I2042
sg14
g5
sg15
I108
sg16
I22122
sg17
I61
sg18
g5
sg19
I18
sg20
I5600000
sg21
I26093672
sg22
I88
sg23
I30
sg24
I6843672
sg25
I1111258
sg26
F1.7277715885959877
sg27
I8682716
sg28
I19250000
sg29
F5.03933380007163
ssS'BLAKE JR. NORMAN P'
p293
(dp294
g3
g5
sg4
g5
sg6
I1279
sg7
I00
sg8
g5
sg9
g5
sg11
I-113784
sg12
g5
sg13
g5
sg14
g5
sg15
g5
sg16
g5
sg17
I0
sg18
I113784
sg19
I0
sg20
g5
sg21
g5
sg22
g5
sg23
g5
sg24
g5
sg25
g5
sg26
I0
sg27
I1279
sg28
g5
sg29
I0
ssS'SHERRICK JEFFREY B'
p295
(dp296
g3
I613
sg4
g5
sg6
g5
sg7
I00
sg8
g5
sg9
S'jeffrey.sherrick@enron.com'
p297
sg11
g5
sg12
g5
sg13
I583
sg14
g5
sg15
I25
sg16
g5
sg17
I16
sg18
g5
sg19
I17
sg20
g5
sg21
I1832468
sg22
I39
sg23
I18
sg24
I405999
sg25
g5
sg26
I0
sg27
g5
sg28
I1426469
sg29
I0
ssS'PRENTICE JAMES'
p298
(dp299
g3
g5
sg4
I564348
sg6
g5
sg7
I00
sg8
g5
sg9
S'james.prentice@enron.com'
p300
sg11
g5
sg12
g5
sg13
g5
sg14
g5
sg15
g5
sg16
g5
sg17
I0
sg18
g5
sg19
I0
sg20
g5
sg21
I1095040
sg22
g5
sg23
g5
sg24
I208809
sg25
g5
sg26
I0
sg27
I564348
sg28
I886231
sg29
I0
ssS'GRAY RODNEY'
p301
(dp302
g3
g5
sg4
I93585
sg6
g5
sg7
I00
sg8
I365625
sg9
g5
sg11
g5
sg12
g5
sg13
g5
sg14
g5
sg15
g5
sg16
I680833
sg17
I0
sg18
g5
sg19
I0
sg20
g5
sg21
g5
sg22
g5
sg23
g5
sg24
g5
sg25
I6615
sg26
I0
sg27
I1146658
sg28
g5
sg29
I0
ssS'PICKERING MARK R'
p303
(dp304
g3
I898
sg4
g5
sg6
I31653
sg7
I00
sg8
g5
sg9
S'mark.pickering@enron.com'
p305
sg11
g5
sg12
g5
sg13
I728
sg14
I400000
sg15
I67
sg16
g5
sg17
I1
sg18
g5
sg19
I2
sg20
I300000
sg21
I28798
sg22
I7
sg23
I0
sg24
g5
sg25
I655037
sg26
I0
sg27
I1386690
sg28
I28798
sg29
I0
ssS'NOLES JAMES L'
p306
(dp307
g3
g5
sg4
I774401
sg6
g5
sg7
I00
sg8
g5
sg9
g5
sg11
g5
sg12
I-94556
sg13
g5
sg14
g5
sg15
g5
sg16
g5
sg17
I0
sg18
g5
sg19
I0
sg20
g5
sg21
I368705
sg22
g5
sg23
g5
sg24
I463261
sg25
g5
sg26
I0
sg27
I774401
sg28
g5
sg29
I0
ssS'KEAN STEVEN J'
p308
(dp309
g3
I12754
sg4
g5
sg6
I41953
sg7
I00
sg8
I300000
sg9
S'steven.kean@enron.com'
p310
sg11
g5
sg12
g5
sg13
I3639
sg14
g5
sg15
I6759
sg16
I1231
sg17
I1738
sg18
g5
sg19
I153
sg20
I1000000
sg21
I6153642
sg22
I140
sg23
I387
sg24
I4131594
sg25
I404338
sg26
F0.7419535141391608
sg27
I1747522
sg28
I2022048
sg29
F2.473178380463869
ssS'FOWLER PEGGY'
p311
(dp312
g3
I517
sg4
g5
sg6
g5
sg7
I00
sg8
g5
sg9
S'kulvinder.fowler@enron.com'
p313
sg11
g5
sg12
g5
sg13
I10
sg14
g5
sg15
I36
sg16
g5
sg17
I0
sg18
g5
sg19
I0
sg20
g5
sg21
I1884748
sg22
I0
sg23
I0
sg24
I560170
sg25
g5
sg26
I0
sg27
g5
sg28
I1324578
sg29
I0
ssS'WASAFF GEORGE'
p314
(dp315
g3
I400
sg4
I831299
sg6
g5
sg7
I00
sg8
I200000
sg9
S'george.wasaff@enron.com'
p316
sg11
I-583325
sg12
g5
sg13
I337
sg14
g5
sg15
I30
sg16
I1425
sg17
I0
sg18
g5
sg19
I0
sg20
I325000
sg21
I2056427
sg22
I22
sg23
I7
sg24
I388167
sg25
I259996
sg26
F0.7692426037323651
sg27
I1034395
sg28
I1668260
sg29
F1.2500192310650933
ssS'WHITE JR THOMAS E'
p317
(dp318
g3
g5
sg4
g5
sg6
I81353
sg7
I00
sg8
g5
sg9
S'thomas.white@enron.com'
p319
sg11
g5
sg12
g5
sg13
g5
sg14
g5
sg15
g5
sg16
I1085463
sg17
I0
sg18
g5
sg19
I0
sg20
I450000
sg21
I15144123
sg22
g5
sg23
g5
sg24
I13847074
sg25
I317543
sg26
I0
sg27
I1934359
sg28
I1297049
sg29
I0
ssS'CHRISTODOULOU DIOMEDES'
p320
(dp321
g3
g5
sg4
g5
sg6
g5
sg7
I00
sg8
g5
sg9
S'diomedes.christodoulou@enron.com'
p322
sg11
g5
sg12
g5
sg13
g5
sg14
g5
sg15
g5
sg16
g5
sg17
I0
sg18
g5
sg19
I0
sg20
g5
sg21
I6077885
sg22
g5
sg23
g5
sg24
I950730
sg25
g5
sg26
I0
sg27
g5
sg28
I5127155
sg29
I0
ssS'ALLEN PHILLIP K'
p323
(dp324
g3
I2902
sg4
I2869717
sg6
I13868
sg7
I00
sg8
I304805
sg9
S'phillip.allen@enron.com'
p325
sg11
I-3081055
sg12
I-126027
sg13
I1407
sg14
g5
sg15
I2195
sg16
I152
sg17
I93
sg18
g5
sg19
I15
sg20
I4175000
sg21
I1729541
sg22
I47
sg23
I65
sg24
I126027
sg25
I201955
sg26
F1.5092718674952341
sg27
I4484442
sg28
I1729541
sg29
F20.672922185635414
ssS'SHARP VICTORIA T'
p326
(dp327
g3
I3136
sg4
I187469
sg6
I116337
sg7
I00
sg8
I422158
sg9
S'vicki.sharp@enron.com'
p328
sg11
g5
sg12
g5
sg13
I2477
sg14
g5
sg15
I136
sg16
I2401
sg17
I15
sg18
g5
sg19
I62
sg20
I600000
sg21
I494136
sg22
I24
sg23
I6
sg24
I213063
sg25
I248146
sg26
F1.7012484585687457
sg27
I1576511
sg28
I281073
sg29
F2.417931379107461
ssS'JAEDICKE ROBERT'
p329
(dp330
g3
g5
sg4
g5
sg6
g5
sg7
I00
sg8
g5
sg9
g5
sg11
I-25000
sg12
I-44093
sg13
g5
sg14
g5
sg15
g5
sg16
g5
sg17
I0
sg18
I108750
sg19
I0
sg20
g5
sg21
I431750
sg22
g5
sg23
g5
sg24
I44093
sg25
g5
sg26
I0
sg27
I83750
sg28
I431750
sg29
I0
ssS'WINOKUR JR. HERBERT S'
p331
(dp332
g3
g5
sg4
g5
sg6
I1413
sg7
I00
sg8
g5
sg9
g5
sg11
I-25000
sg12
g5
sg13
g5
sg14
g5
sg15
g5
sg16
g5
sg17
I0
sg18
I108579
sg19
I0
sg20
g5
sg21
g5
sg22
g5
sg23
g5
sg24
g5
sg25
g5
sg26
I0
sg27
I84992
sg28
g5
sg29
I0
ssS'BROWN MICHAEL'
p333
(dp334
g3
I1486
sg4
g5
sg6
I49288
sg7
I00
sg8
g5
sg9
S'michael.brown@enron.com'
p335
sg11
g5
sg12
g5
sg13
I761
sg14
g5
sg15
I41
sg16
g5
sg17
I0
sg18
g5
sg19
I24
sg20
g5
sg21
g5
sg22
I13
sg23
I1
sg24
g5
sg25
g5
sg26
I0
sg27
I49288
sg28
g5
sg29
I0
ssS'BADUM JAMES P'
p336
(dp337
g3
g5
sg4
I178980
sg6
I3486
sg7
I00
sg8
g5
sg9
g5
sg11
g5
sg12
g5
sg13
g5
sg14
g5
sg15
g5
sg16
g5
sg17
I0
sg18
g5
sg19
I0
sg20
g5
sg21
I257817
sg22
g5
sg23
g5
sg24
g5
sg25
g5
sg26
I0
sg27
I182466
sg28
I257817
sg29
I0
ssS'HUGHES JAMES A'
p338
(dp339
g3
I719
sg4
g5
sg6
g5
sg7
I00
sg8
g5
sg9
S'james.hughes@enron.com'
p340
sg11
g5
sg12
g5
sg13
I589
sg14
g5
sg15
I34
sg16
g5
sg17
I0
sg18
g5
sg19
I17
sg20
g5
sg21
I1118394
sg22
I35
sg23
I5
sg24
I363428
sg25
g5
sg26
I0
sg27
g5
sg28
I754966
sg29
I0
ssS'REYNOLDS LAWRENCE'
p341
(dp342
g3
g5
sg4
I51365
sg6
I8409
sg7
I00
sg8
I156250
sg9
g5
sg11
I-200000
sg12
I-140264
sg13
g5
sg14
g5
sg15
g5
sg16
I202052
sg17
I0
sg18
g5
sg19
I0
sg20
I100000
sg21
I4221891
sg22
g5
sg23
g5
sg24
I201483
sg25
I76399
sg26
F2.045183837484784
sg27
I394475
sg28
I4160672
sg29
F1.3089176559902616
ssS'DIMICHELE RICHARD G'
p343
(dp344
g3
g5
sg4
g5
sg6
I35812
sg7
I00
sg8
I694862
sg9
S'richard.dimichele@enron.com'
p345
sg11
g5
sg12
g5
sg13
g5
sg14
g5
sg15
g5
sg16
I374689
sg17
I0
sg18
g5
sg19
I0
sg20
I1000000
sg21
I8317782
sg22
g5
sg23
g5
sg24
I126027
sg25
I262788
sg26
F2.644192276664079
sg27
I2368151
sg28
I8191755
sg29
F3.8053487982708494
ssS'BHATNAGAR SANJAY'
p346
(dp347
g3
I523
sg4
g5
sg6
g5
sg7
I00
sg8
g5
sg9
S'sanjay.bhatnagar@enron.com'
p348
sg11
g5
sg12
I15456290
sg13
I463
sg14
g5
sg15
I29
sg16
I137864
sg17
I11
sg18
I137864
sg19
I17
sg20
g5
sS'total_stock_value'
p349
S'NaN'
p350
sg22
I0
sg23
I1
sg24
I-2604490
sg25
g5
sg26
I0
sg27
I15456290
sg28
I2604490
sg29
I0
ssS'CARTER REBECCA C'
p351
(dp352
g3
I312
sg4
g5
sg6
g5
sg7
I00
sg8
I75000
sg9
S'rebecca.carter@enron.com'
p353
sg11
I-159792
sg12
I-307301
sg13
I196
sg14
g5
sg15
I15
sg16
I540
sg17
I0
sg18
g5
sg19
I4
sg20
I300000
sg21
g5
sg22
I29
sg23
I7
sg24
I307301
sg25
I261809
sg26
F0.2864683796202575
sg27
I477557
sg28
g5
sg29
F1.14587351848103
ssS'BUCHANAN HAROLD G'
p354
(dp355
g3
I1088
sg4
g5
sg6
I600
sg7
I00
sg8
I304805
sg9
S'john.buchanan@enron.com'
p356
sg11
g5
sg12
g5
sg13
I23
sg14
g5
sg15
I125
sg16
I1215
sg17
I5
sg18
g5
sg19
I0
sg20
I500000
sg21
I1014505
sg22
I0
sg23
I0
sg24
I189041
sg25
I248017
sg26
F1.2289681755686102
sg27
I1054637
sg28
I825464
sg29
F2.015990839337626
ssS'YEAP SOON'
p357
(dp358
g3
g5
sg4
g5
sg6
I55097
sg7
I00
sg8
g5
sg9
g5
sg11
g5
sg12
g5
sg13
g5
sg14
g5
sg15
g5
sg16
g5
sg17
I0
sg18
g5
sg19
I0
sg20
g5
sg21
I192758
sg22
g5
sg23
g5
sg24
g5
sg25
g5
sg26
I0
sg27
I55097
sg28
I192758
sg29
I0
ssS'MURRAY JULIA H'
p359
(dp360
g3
I2192
sg4
g5
sg6
I57580
sg7
I00
sg8
I125000
sg9
S'julia.murray@enron.com'
p361
sg11
g5
sg12
g5
sg13
I395
sg14
g5
sg15
I45
sg16
I330
sg17
I0
sg18
g5
sg19
I2
sg20
I400000
sg21
I597461
sg22
I11
sg23
I2
sg24
I196983
sg25
I229284
sg26
F0.5451754156417369
sg27
I812194
sg28
I400478
sg29
F1.744561330053558
ssS'GARLAND C KEVIN'
p362
(dp363
g3
I209
sg4
g5
sg6
I48405
sg7
I00
sg8
I375304
sg9
S'kevin.garland@enron.com'
p364
sg11
g5
sg12
g5
sg13
I178
sg14
g5
sg15
I44
sg16
I60814
sg17
I3
sg18
g5
sg19
I0
sg20
I850000
sg21
I896153
sg22
I10
sg23
I27
sg24
I259907
sg25
I231946
sg26
F1.6180662740465452
sg27
I1566469
sg28
I636246
sg29
F3.6646460814155017
ssS'DODSON KEITH'
p365
(dp366
g3
I176
sg4
g5
sg6
I28164
sg7
I00
sg8
g5
sg9
S'keith.dodson@enron.com'
p367
sg11
g5
sg12
g5
sg13
I114
sg14
g5
sg15
I14
sg16
I774
sg17
I0
sg18
g5
sg19
I6
sg20
I70000
sg21
g5
sg22
I10
sg23
I3
sg24
g5
sg25
I221003
sg26
I0
sg27
I319941
sg28
g5
sg29
I0
ssS'YEAGER F SCOTT'
p368
(dp369
g3
g5
sg4
g5
sg6
I53947
sg7
I01
sg8
g5
sg9
S'scott.yeager@enron.com'
p370
sg11
g5
sg12
g5
sg13
g5
sg14
g5
sg15
g5
sg16
I147950
sg17
I0
sg18
g5
sg19
I0
sg20
g5
sg21
I11884758
sg22
g5
sg23
g5
sg24
I3576206
sg25
I158403
sg26
I0
sg27
I360300
sg28
I8308552
sg29
I0
ssS'HIRKO JOSEPH'
p371
(dp372
g3
g5
sg4
I10259
sg6
I77978
sg7
I01
sg8
g5
sg9
S'joe.hirko@enron.com'
p373
sg11
g5
sg12
g5
sg13
g5
sg14
g5
sg15
g5
sg16
I2856
sg17
I0
sg18
g5
sg19
I0
sg20
g5
sg21
I30766064
sg22
g5
sg23
g5
sg24
g5
sg25
g5
sg26
I0
sg27
I91093
sg28
I30766064
sg29
I0
ssS'DIETRICH JANET R'
p374
(dp375
g3
I2572
sg4
g5
sg6
I3475
sg7
I00
sg8
I556416
sg9
S'janet.dietrich@enron.com'
p376
sg11
g5
sg12
g5
sg13
I1902
sg14
g5
sg15
I63
sg16
I473
sg17
I22
sg18
g5
sg19
I6
sg20
I600000
sg21
I1865087
sg22
I305
sg23
I14
sg24
I315068
sg25
I250100
sg26
F2.2247740903638547
sg27
I1410464
sg28
I1550019
sg29
F2.3990403838464616
ssS'DERRICK JR. JAMES V'
p377
(dp378
g3
I2181
sg4
g5
sg6
I51124
sg7
I00
sg8
I484000
sg9
S'james.derrick@enron.com'
p379
sg11
I-1284000
sg12
I-1787380
sg13
I1401
sg14
g5
sg15
I909
sg16
I7482
sg17
I116
sg18
g5
sg19
I42
sg20
I800000
sg21
I8831913
sg22
I64
sg23
I20
sg24
I1787380
sg25
I492375
sg26
F0.982990606752983
sg27
I550981
sg28
I8831913
sg29
F1.6247778624016247
ssS'FREVERT MARK A'
p380
(dp381
g3
I3275
sg4
I6426990
sg6
I86987
sg7
I00
sg8
I1617011
sg9
S'mark.frevert@enron.com'
p382
sg11
I-3367011
sg12
g5
sg13
I2979
sg14
I2000000
sg15
I21
sg16
I7427621
sg17
I0
sg18
g5
sg19
I28
sg20
I2000000
sg21
I14622185
sg22
I242
sg23
I6
sg24
I4188667
sg25
I1060932
sg26
F1.5241419808244072
sg27
I17252530
sg28
I10433518
sg29
F1.885134956811558
ssS'PAI LOU L'
p383
(dp384
g3
g5
sg4
g5
sg6
I32047
sg7
I00
sg8
g5
sg9
S'lou.pai@enron.com'
p385
sg11
g5
sg12
g5
sg13
g5
sg14
g5
sg15
g5
sg16
I1829457
sg17
I0
sg18
g5
sg19
I0
sg20
I1000000
sg21
I23817930
sg22
g5
sg23
g5
sg24
I8453763
sg25
I261879
sg26
I0
sg27
I3123383
sg28
I15364167
sg29
I0
ssS'BAY FRANKLIN R'
p386
(dp387
g3
g5
sg4
I260455
sg6
I129142
sg7
I00
sg8
g5
sg9
S'frank.bay@enron.com'
p388
sg11
I-201641
sg12
I-82782
sg13
g5
sg14
g5
sg15
g5
sg16
I69
sg17
I0
sg18
g5
sg19
I0
sg20
I400000
sg21
I63014
sg22
g5
sg23
g5
sg24
I145796
sg25
I239671
sg26
I0
sg27
I827696
sg28
g5
sg29
I0
ssS'HAYSLETT RODERICK J'
p389
(dp390
g3
I2649
sg4
g5
sg6
g5
sg7
I00
sg8
g5
sg9
S'rod.hayslett@enron.com'
p391
sg11
g5
sg12
g5
sg13
I571
sg14
g5
sg15
I1061
sg16
g5
sg17
I57
sg18
g5
sg19
I20
sg20
g5
sg21
I346663
sg22
I35
sg23
I38
sg24
I346663
sg25
g5
sg26
I0
sg27
g5
sg28
g5
sg29
I0
ssS'FUGH JOHN L'
p392
(dp393
g3
g5
sg4
I50591
sg6
g5
sg7
I00
sg8
g5
sg9
g5
sg11
g5
sg12
g5
sg13
g5
sg14
g5
sg15
g5
sg16
g5
sg17
I0
sg18
g5
sg19
I0
sg20
g5
sg21
I176378
sg22
g5
sg23
g5
sg24
g5
sg25
g5
sg26
I0
sg27
I50591
sg28
I176378
sg29
I0
ssS'FALLON JAMES B'
p394
(dp395
g3
I1755
sg4
g5
sg6
I95924
sg7
I00
sg8
I374347
sg9
S'jim.fallon@enron.com'
p396
sg11
g5
sg12
g5
sg13
I1604
sg14
g5
sg15
I75
sg16
I401481
sg17
I3
sg18
g5
sg19
I23
sg20
I2500000
sg21
I2332399
sg22
I42
sg23
I37
sg24
I1392142
sg25
I304588
sg26
F1.229027407514413
sg27
I3676340
sg28
I940257
sg29
F8.207808580771403
ssS'KOENIG MARK E'
p397
(dp398
g3
I2374
sg4
g5
sg6
I127017
sg7
I01
sg8
I300000
sg9
S'mark.koenig@enron.com'
p399
sg11
g5
sg12
g5
sg13
I2271
sg14
g5
sg15
I61
sg16
I150458
sg17
I13
sg18
g5
sg19
I37
sg20
I700000
sg21
I1920055
sg22
I53
sg23
I15
sg24
I1248318
sg25
I309946
sg26
F0.9679105392552251
sg27
I1587421
sg28
I671737
sg29
F2.2584579249288588
ssS'SAVAGE FRANK'
p400
(dp401
g3
g5
sg4
g5
sg6
g5
sg7
I00
sg8
g5
sg9
g5
sg11
I-121284
sg12
g5
sg13
g5
sg14
g5
sg15
g5
sg16
g5
sg17
I0
sg18
I125034
sg19
I0
sg20
g5
sg21
g5
sg22
g5
sg23
g5
sg24
g5
sg25
g5
sg26
I0
sg27
I3750
sg28
g5
sg29
I0
ssS'IZZO LAWRENCE L'
p402
(dp403
g3
I496
sg4
g5
sg6
I28093
sg7
I00
sg8
I312500
sg9
S'larry.izzo@enron.com'
p404
sg11
g5
sg12
g5
sg13
I437
sg14
g5
sg15
I19
sg16
I1553729
sg17
I15
sg18
g5
sg19
I17
sg20
g5
sg21
I5819980
sg22
I28
sg23
I5
sg24
I3654808
sg25
I85274
sg26
I0
sg27
I1979596
sg28
I2165172
sg29
I0
ssS'TILNEY ELIZABETH A'
p405
(dp406
g3
I460
sg4
g5
sg6
g5
sg7
I00
sg8
I275000
sg9
S'elizabeth.tilney@enron.com'
p407
sg11
I-575000
sg12
g5
sg13
I379
sg14
g5
sg15
I19
sg16
I152055
sg17
I0
sg18
g5
sg19
I16
sg20
I300000
sg21
I1168042
sg22
I10
sg23
I11
sg24
I576792
sg25
I247338
sg26
F1.111838860183231
sg27
I399393
sg28
I591250
sg29
F1.2129151201998885
ssS'MARTIN AMANDA K'
p408
(dp409
g3
I1522
sg4
I85430
sg6
I8211
sg7
I00
sg8
I5145434
sg9
S'a..martin@enron.com'
p410
sg11
g5
sg12
g5
sg13
I477
sg14
g5
sg15
I230
sg16
I2818454
sg17
I30
sg18
g5
sg19
I0
sg20
g5
sg21
I2070306
sg22
I8
sg23
I0
sg24
g5
sg25
I349487
sg26
I0
sg27
I8407016
sg28
I2070306
sg29
I0
ssS'BUY RICHARD B'
p411
(dp412
g3
I3523
sg4
I649584
sg6
g5
sg7
I00
sg8
I769862
sg9
S'rick.buy@enron.com'
p413
sg11
I-694862
sg12
g5
sg13
I2333
sg14
g5
sg15
I1053
sg16
I400572
sg17
I83
sg18
g5
sg19
I54
sg20
I900000
sg21
I3444470
sg22
I156
sg23
I71
sg24
I901657
sg25
I330546
sg26
F2.3290616132096593
sg27
I2355702
sg28
I2542813
sg29
F2.722767784211577
ssS'GRAMM WENDY L'
p414
(dp415
g3
g5
sg4
g5
sg6
g5
sg7
I00
sg8
g5
sg9
g5
sg11
g5
sg12
g5
sg13
g5
sg14
g5
sg15
g5
sg16
g5
sg17
I0
sg18
I119292
sg19
I0
sg20
g5
sg21
g5
sg22
g5
sg23
g5
sg24
g5
sg25
g5
sg26
I0
sg27
I119292
sg28
g5
sg29
I0
ssS'CAUSEY RICHARD A'
p416
(dp417
g3
I1892
sg4
g5
sg6
I30674
sg7
I01
sg8
I350000
sg9
S'richard.causey@enron.com'
p418
sg11
I-235000
sg12
g5
sg13
I1585
sg14
g5
sg15
I49
sg16
I307895
sg17
I26
sg18
g5
sg19
I39
sg20
I1000000
sg21
I2502063
sg22
I58
sg23
I12
sg24
I2502063
sg25
I415189
sg26
F0.8429895782402713
sg27
I1868758
sg28
g5
sg29
F2.4085416521150607
ssS'TAYLOR MITCHELL S'
p419
(dp420
g3
I533
sg4
I227449
sg6
g5
sg7
I00
sg8
g5
sg9
S'mitchell.taylor@enron.com'
p421
sg11
g5
sg12
g5
sg13
I300
sg14
g5
sg15
I29
sg16
g5
sg17
I6
sg18
g5
sg19
I10
sg20
I600000
sg21
I3745048
sg22
I0
sg23
I0
sg24
I563798
sg25
I265214
sg26
I0
sg27
I1092663
sg28
I3181250
sg29
I0
ssS'DONAHUE JR JEFFREY M'
p422
(dp423
g3
I865
sg4
g5
sg6
I96268
sg7
I00
sg8
g5
sg9
S'jeff.donahue@enron.com'
p424
sg11
I-300000
sg12
g5
sg13
I772
sg14
g5
sg15
I22
sg16
I891
sg17
I1
sg18
g5
sg19
I0
sg20
I800000
sg21
I1080988
sg22
I188
sg23
I11
sg24
I315068
sg25
I278601
sg26
I0
sg27
I875760
sg28
I765920
sg29
I0
ssS'GLISAN JR BEN F'
p425
(dp426
g3
I873
sg4
g5
sg6
I125978
sg7
I01
sg8
I71023
sg9
S'ben.glisan@enron.com'
p427
sg11
g5
sg12
g5
sg13
I874
sg14
g5
sg15
I16
sg16
I200308
sg17
I6
sg18
g5
sg19
I30
sg20
I600000
sg21
I778546
sg22
I52
sg23
I6
sg24
I393818
sg25
I274975
sg26
F0.2582889353577598
sg27
I1272284
sg28
I384728
sg29
F2.1820165469588146
ss.