(lp0
S'poi'
p1
aS'salary'
p2
aS'bonus'
p3
aS'deferral_payments'
p4
aS'deferred_income'
p5
aS'director_fees'
p6
aS'exercised_stock_options'
p7
aS'expenses'
p8
aS'from_messages'
p9
aS'from_poi_to_this_person'
p10
aS'from_this_person_to_poi'
p11
aS'loan_advances'
p12
aS'long_term_incentive'
p13
aS'other'
p14
aS'restricted_stock'
p15
aS'restricted_stock_deferred'
p16
aS'shared_receipt_with_poi'
p17
aS'to_messages'
p18
aS'total_payments'
p19
aS'total_stock_value'
p20
aS'bonus_per_salary'
p21
aS'long_term_incentive_per_salary'
p22
aS'important_to'
p23
aS'important_from'
p24
a.