(lp0
S'poi'
p1
aS'salary'
p2
aS'bonus'
p3
aS'deferral_payments'
p4
aS'deferred_income'
p5
aS'exercised_stock_options'
p6
aS'expenses'
p7
aS'long_term_incentive'
p8
aS'other'
p9
aS'restricted_stock'
p10
aS'restricted_stock_deferred'
p11
aS'shared_receipt_with_poi'
p12
aS'total_payments'
p13
aS'total_stock_value'
p14
aS'bonus_per_salary'
p15
aS'long_term_incentive_per_salary'
p16
aS'important_to'
p17
aS'important_from'
p18
a.